target datalayout = "e-m:e-p270:32:32-p271:32:32-p272:64:64-i64:64-i128:128-f80:128-n8:16:32:64-S128"
target triple = "x86_64-pc-linux-gnu"

%struct.uv__process_title = type { ptr, i64, i64 }

@args_mem = internal global ptr null, align 8
@process_title = internal global %struct.uv__process_title zeroinitializer, align 8

; Function Attrs: nounwind uwtable
define dso_local ptr @uv_setup_args(i32 noundef %0, ptr noundef %1) #0 {
  %3 = alloca ptr, align 8
  %4 = alloca i32, align 4
  %5 = alloca ptr, align 8
  %6 = alloca %struct.uv__process_title, align 8
  %7 = alloca ptr, align 8
  %8 = alloca i64, align 8
  %9 = alloca ptr, align 8
  %10 = alloca i32, align 4
  %11 = alloca i32, align 4
  store i32 %0, ptr %4, align 4, !tbaa !4
  store ptr %1, ptr %5, align 8, !tbaa !8
  call void @llvm.lifetime.start.p0(i64 24, ptr %6) #6
  call void @llvm.lifetime.start.p0(i64 8, ptr %7) #6
  call void @llvm.lifetime.start.p0(i64 8, ptr %8) #6
  call void @llvm.lifetime.start.p0(i64 8, ptr %9) #6
  call void @llvm.lifetime.start.p0(i64 4, ptr %10) #6
  %12 = load i32, ptr %4, align 4, !tbaa !4
  %13 = icmp sle i32 %12, 0
  br i1 %13, label %14, label %16

14:                                               ; preds = %2
  %15 = load ptr, ptr %5, align 8, !tbaa !8
  store ptr %15, ptr %3, align 8
  store i32 1, ptr %11, align 4
  br label %124

16:                                               ; preds = %2
  %17 = load ptr, ptr %5, align 8, !tbaa !8
  %18 = getelementptr inbounds ptr, ptr %17, i64 0
  %19 = load ptr, ptr %18, align 8, !tbaa !11
  %20 = getelementptr inbounds nuw %struct.uv__process_title, ptr %6, i32 0, i32 0
  store ptr %19, ptr %20, align 8, !tbaa !13
  %21 = load ptr, ptr %5, align 8, !tbaa !8
  %22 = getelementptr inbounds ptr, ptr %21, i64 0
  %23 = load ptr, ptr %22, align 8, !tbaa !11
  %24 = call i64 @strlen(ptr noundef %23) #7
  %25 = getelementptr inbounds nuw %struct.uv__process_title, ptr %6, i32 0, i32 1
  store i64 %24, ptr %25, align 8, !tbaa !16
  %26 = getelementptr inbounds nuw %struct.uv__process_title, ptr %6, i32 0, i32 1
  %27 = load i64, ptr %26, align 8, !tbaa !16
  %28 = add i64 %27, 1
  %29 = getelementptr inbounds nuw %struct.uv__process_title, ptr %6, i32 0, i32 2
  store i64 %28, ptr %29, align 8, !tbaa !17
  %30 = getelementptr inbounds nuw %struct.uv__process_title, ptr %6, i32 0, i32 2
  %31 = load i64, ptr %30, align 8, !tbaa !17
  store i64 %31, ptr %8, align 8, !tbaa !18
  store i32 1, ptr %10, align 4, !tbaa !4
  br label %32

32:                                               ; preds = %46, %16
  %33 = load i32, ptr %10, align 4, !tbaa !4
  %34 = load i32, ptr %4, align 4, !tbaa !4
  %35 = icmp slt i32 %33, %34
  br i1 %35, label %36, label %49

36:                                               ; preds = %32
  %37 = load ptr, ptr %5, align 8, !tbaa !8
  %38 = load i32, ptr %10, align 4, !tbaa !4
  %39 = sext i32 %38 to i64
  %40 = getelementptr inbounds ptr, ptr %37, i64 %39
  %41 = load ptr, ptr %40, align 8, !tbaa !11
  %42 = call i64 @strlen(ptr noundef %41) #7
  %43 = add i64 %42, 1
  %44 = load i64, ptr %8, align 8, !tbaa !18
  %45 = add i64 %44, %43
  store i64 %45, ptr %8, align 8, !tbaa !18
  br label %46

46:                                               ; preds = %36
  %47 = load i32, ptr %10, align 4, !tbaa !4
  %48 = add nsw i32 %47, 1
  store i32 %48, ptr %10, align 4, !tbaa !4
  br label %32, !llvm.loop !19

49:                                               ; preds = %32
  %50 = load i32, ptr %4, align 4, !tbaa !4
  %51 = add nsw i32 %50, 1
  %52 = sext i32 %51 to i64
  %53 = mul i64 %52, 8
  %54 = load i64, ptr %8, align 8, !tbaa !18
  %55 = add i64 %54, %53
  store i64 %55, ptr %8, align 8, !tbaa !18
  %56 = load i64, ptr %8, align 8, !tbaa !18
  %57 = call ptr @uv__malloc(i64 noundef %56)
  store ptr %57, ptr %7, align 8, !tbaa !8
  %58 = load ptr, ptr %7, align 8, !tbaa !8
  %59 = icmp eq ptr %58, null
  br i1 %59, label %60, label %62

60:                                               ; preds = %49
  %61 = load ptr, ptr %5, align 8, !tbaa !8
  store ptr %61, ptr %3, align 8
  store i32 1, ptr %11, align 4
  br label %124

62:                                               ; preds = %49
  store i32 0, ptr %10, align 4, !tbaa !4
  %63 = load ptr, ptr %7, align 8, !tbaa !8
  %64 = load i32, ptr %4, align 4, !tbaa !4
  %65 = add nsw i32 %64, 1
  %66 = sext i32 %65 to i64
  %67 = getelementptr inbounds ptr, ptr %63, i64 %66
  store ptr %67, ptr %9, align 8, !tbaa !11
  %68 = getelementptr inbounds nuw %struct.uv__process_title, ptr %6, i32 0, i32 2
  %69 = load i64, ptr %68, align 8, !tbaa !17
  store i64 %69, ptr %8, align 8, !tbaa !18
  br label %83

70:                                               ; No predecessors!
  br label %71

71:                                               ; preds = %99, %70
  %72 = load i32, ptr %10, align 4, !tbaa !4
  %73 = load i32, ptr %4, align 4, !tbaa !4
  %74 = icmp slt i32 %72, %73
  br i1 %74, label %75, label %102

75:                                               ; preds = %71
  %76 = load ptr, ptr %5, align 8, !tbaa !8
  %77 = load i32, ptr %10, align 4, !tbaa !4
  %78 = sext i32 %77 to i64
  %79 = getelementptr inbounds ptr, ptr %76, i64 %78
  %80 = load ptr, ptr %79, align 8, !tbaa !11
  %81 = call i64 @strlen(ptr noundef %80) #7
  %82 = add i64 %81, 1
  store i64 %82, ptr %8, align 8, !tbaa !18
  br label %83

83:                                               ; preds = %75, %62
  %84 = load ptr, ptr %9, align 8, !tbaa !11
  %85 = load ptr, ptr %5, align 8, !tbaa !8
  %86 = load i32, ptr %10, align 4, !tbaa !4
  %87 = sext i32 %86 to i64
  %88 = getelementptr inbounds ptr, ptr %85, i64 %87
  %89 = load ptr, ptr %88, align 8, !tbaa !11
  %90 = load i64, ptr %8, align 8, !tbaa !18
  call void @llvm.memcpy.p0.p0.i64(ptr align 1 %84, ptr align 1 %89, i64 %90, i1 false)
  %91 = load ptr, ptr %9, align 8, !tbaa !11
  %92 = load ptr, ptr %7, align 8, !tbaa !8
  %93 = load i32, ptr %10, align 4, !tbaa !4
  %94 = sext i32 %93 to i64
  %95 = getelementptr inbounds ptr, ptr %92, i64 %94
  store ptr %91, ptr %95, align 8, !tbaa !11
  %96 = load i64, ptr %8, align 8, !tbaa !18
  %97 = load ptr, ptr %9, align 8, !tbaa !11
  %98 = getelementptr inbounds nuw i8, ptr %97, i64 %96
  store ptr %98, ptr %9, align 8, !tbaa !11
  br label %99

99:                                               ; preds = %83
  %100 = load i32, ptr %10, align 4, !tbaa !4
  %101 = add nsw i32 %100, 1
  store i32 %101, ptr %10, align 4, !tbaa !4
  br label %71, !llvm.loop !21

102:                                              ; preds = %71
  %103 = load ptr, ptr %7, align 8, !tbaa !8
  %104 = load i32, ptr %10, align 4, !tbaa !4
  %105 = sext i32 %104 to i64
  %106 = getelementptr inbounds ptr, ptr %103, i64 %105
  store ptr null, ptr %106, align 8, !tbaa !11
  %107 = load ptr, ptr %5, align 8, !tbaa !8
  %108 = load i32, ptr %10, align 4, !tbaa !4
  %109 = sub nsw i32 %108, 1
  %110 = sext i32 %109 to i64
  %111 = getelementptr inbounds ptr, ptr %107, i64 %110
  %112 = load ptr, ptr %111, align 8, !tbaa !11
  %113 = load i64, ptr %8, align 8, !tbaa !18
  %114 = getelementptr inbounds nuw i8, ptr %112, i64 %113
  %115 = load ptr, ptr %5, align 8, !tbaa !8
  %116 = getelementptr inbounds ptr, ptr %115, i64 0
  %117 = load ptr, ptr %116, align 8, !tbaa !11
  %118 = ptrtoint ptr %114 to i64
  %119 = ptrtoint ptr %117 to i64
  %120 = sub i64 %118, %119
  %121 = getelementptr inbounds nuw %struct.uv__process_title, ptr %6, i32 0, i32 2
  store i64 %120, ptr %121, align 8, !tbaa !17
  %122 = load ptr, ptr %7, align 8, !tbaa !8
  store ptr %122, ptr @args_mem, align 8, !tbaa !22
  call void @llvm.memcpy.p0.p0.i64(ptr align 8 @process_title, ptr align 8 %6, i64 24, i1 false), !tbaa.struct !23
  %123 = load ptr, ptr %7, align 8, !tbaa !8
  store ptr %123, ptr %3, align 8
  store i32 1, ptr %11, align 4
  br label %124

124:                                              ; preds = %102, %60, %14
  call void @llvm.lifetime.end.p0(i64 4, ptr %10) #6
  call void @llvm.lifetime.end.p0(i64 8, ptr %9) #6
  call void @llvm.lifetime.end.p0(i64 8, ptr %8) #6
  call void @llvm.lifetime.end.p0(i64 8, ptr %7) #6
  call void @llvm.lifetime.end.p0(i64 24, ptr %6) #6
  %125 = load ptr, ptr %3, align 8
  ret ptr %125
}