; Function Attrs: nounwind uwtable
define dso_local ptr @uv_setup_args(i32 noundef %0, ptr noundef readonly %1) local_unnamed_addr #0 {
  %3 = icmp slt i32 %0, 1
  br i1 %3, label %37, label %4

4:                                                ; preds = %2
  %5 = load ptr, ptr %1, align 8, !tbaa !4
  %6 = tail call i64 @strlen(ptr noundef nonnull dereferenceable(1) %5) #6
  %7 = add i64 %6, 1
  %.not = icmp eq i32 %0, 1
  br i1 %.not, label %._crit_edge, label %.lr.ph.preheader

.lr.ph.preheader:                                 ; preds = %4
  %wide.trip.count = zext nneg i32 %0 to i64
  br label %.lr.ph

.lr.ph:                                           ; preds = %.lr.ph.preheader, %.lr.ph
  %indvars.iv = phi i64 [ 1, %.lr.ph.preheader ], [ %indvars.iv.next, %.lr.ph ]
  %.04149 = phi i64 [ %7, %.lr.ph.preheader ], [ %12, %.lr.ph ]
  %8 = getelementptr inbounds nuw ptr, ptr %1, i64 %indvars.iv
  %9 = load ptr, ptr %8, align 8, !tbaa !4
  %10 = tail call i64 @strlen(ptr noundef nonnull dereferenceable(1) %9) #6
  %11 = add i64 %.04149, 1
  %12 = add i64 %11, %10
  %indvars.iv.next = add nuw nsw i64 %indvars.iv, 1
  %exitcond.not = icmp eq i64 %indvars.iv.next, %wide.trip.count
  br i1 %exitcond.not, label %._crit_edge, label %.lr.ph, !llvm.loop !9

._crit_edge:                                      ; preds = %.lr.ph, %4
  %.041.lcssa = phi i64 [ %7, %4 ], [ %12, %.lr.ph ]
  %13 = add nuw nsw i32 %0, 1
  %14 = zext nneg i32 %13 to i64
  %15 = shl nuw nsw i64 %14, 3
  %16 = add i64 %.041.lcssa, %15
  %17 = tail call ptr @uv__malloc(i64 noundef %16) #7
  %18 = icmp eq ptr %17, null
  br i1 %18, label %37, label %19

19:                                               ; preds = %._crit_edge
  %20 = getelementptr inbounds nuw ptr, ptr %17, i64 %14
  %21 = load ptr, ptr %1, align 8, !tbaa !4
  tail call void @llvm.memcpy.p0.p0.i64(ptr nonnull align 1 %20, ptr align 1 %21, i64 %7, i1 false)
  store ptr %20, ptr %17, align 8, !tbaa !4
  br i1 %.not, label %._crit_edge56, label %.lr.ph55.preheader

.lr.ph55.preheader:                               ; preds = %19
  %smax = tail call i32 @llvm.smax.i32(i32 %0, i32 2)
  %wide.trip.count69 = zext nneg i32 %smax to i64
  br label %.lr.ph55

.lr.ph55:                                         ; preds = %.lr.ph55.preheader, %.lr.ph55
  %indvars.iv66 = phi i64 [ 1, %.lr.ph55.preheader ], [ %indvars.iv.next67, %.lr.ph55 ]
  %.04053 = phi ptr [ %20, %.lr.ph55.preheader ], [ %22, %.lr.ph55 ]
  %.14252 = phi i64 [ %7, %.lr.ph55.preheader ], [ %26, %.lr.ph55 ]
  %22 = getelementptr inbounds nuw i8, ptr %.04053, i64 %.14252
  %23 = getelementptr inbounds nuw ptr, ptr %1, i64 %indvars.iv66
  %24 = load ptr, ptr %23, align 8, !tbaa !4
  %25 = tail call i64 @strlen(ptr noundef nonnull dereferenceable(1) %24) #6
  %26 = add i64 %25, 1
  tail call void @llvm.memcpy.p0.p0.i64(ptr align 1 %22, ptr nonnull align 1 %24, i64 %26, i1 false)
  %27 = getelementptr inbounds nuw ptr, ptr %17, i64 %indvars.iv66
  store ptr %22, ptr %27, align 8, !tbaa !4
  %indvars.iv.next67 = add nuw nsw i64 %indvars.iv66, 1
  %exitcond70.not = icmp eq i64 %indvars.iv.next67, %wide.trip.count69
  br i1 %exitcond70.not, label %._crit_edge56.loopexit, label %.lr.ph55

._crit_edge56.loopexit:                           ; preds = %.lr.ph55
  %28 = zext nneg i32 %smax to i64
  br label %._crit_edge56

._crit_edge56:                                    ; preds = %19, %._crit_edge56.loopexit
  %.lcssa51 = phi i64 [ %indvars.iv66, %._crit_edge56.loopexit ], [ 0, %19 ]
  %.142.lcssa = phi i64 [ %26, %._crit_edge56.loopexit ], [ %7, %19 ]
  %.lcssa = phi i64 [ %28, %._crit_edge56.loopexit ], [ 1, %19 ]
  %29 = getelementptr inbounds nuw ptr, ptr %1, i64 %.lcssa51
  %30 = getelementptr inbounds nuw ptr, ptr %17, i64 %.lcssa
  store ptr null, ptr %30, align 8, !tbaa !4
  %31 = load ptr, ptr %29, align 8, !tbaa !4
  %32 = getelementptr inbounds nuw i8, ptr %31, i64 %.142.lcssa
  %33 = load ptr, ptr %1, align 8, !tbaa !4
  %34 = ptrtoint ptr %32 to i64
  %35 = ptrtoint ptr %33 to i64
  %36 = sub i64 %34, %35
  store ptr %17, ptr @args_mem, align 8, !tbaa !11
  store ptr %5, ptr @process_title.0, align 8, !tbaa !4
  store i64 %6, ptr @process_title.1, align 8, !tbaa !12
  store i64 %36, ptr @process_title.2, align 8, !tbaa !12
  br label %37

37:                                               ; preds = %._crit_edge, %2, %._crit_edge56
  %.043 = phi ptr [ %17, %._crit_edge56 ], [ %1, %2 ], [ %1, %._crit_edge ]
  ret ptr %.043
}